---
triple:          'arm64-apple-darwin'
binary-path:     main
relocations:
  - { offsetInCU: 0x2F3E, offset: 0x2F3E, size: 0x8, addend: 0x0, symName: __ZNSt3__124__put_character_sequenceB7v160006IcNS_11char_traitsIcEEEERNS_13basic_ostreamIT_T0_EES7_PKS4_m, symObjAddr: 0x200, symBinAddr: 0x100001D9C, symSize: 0x164 }
  - { offsetInCU: 0x5519, offset: 0x5519, size: 0x8, addend: 0x0, symName: __ZNSt3__116__pad_and_outputB7v160006IcNS_11char_traitsIcEEEENS_19ostreambuf_iteratorIT_T0_EES6_PKS4_S8_S8_RNS_8ios_baseES4_, symObjAddr: 0x364, symBinAddr: 0x100001F00, symSize: 0x19C }
  - { offsetInCU: 0x5D11, offset: 0x5D11, size: 0x8, addend: 0x0, symName: __ZNSt3__120__throw_length_errorB7v160006EPKc, symObjAddr: 0x514, symBinAddr: 0x1000020B0, symSize: 0x50 }
  - { offsetInCU: 0x936F, offset: 0x936F, size: 0x8, addend: 0x0, symName: _main, symObjAddr: 0x0, symBinAddr: 0x100001B9C, symSize: 0x1F4 }
  - { offsetInCU: 0xA61E, offset: 0xA61E, size: 0x8, addend: 0x0, symName: __ZNKSt3__112basic_stringIcNS_11char_traitsIcEENS_9allocatorIcEEE20__throw_length_errorB7v160006Ev, symObjAddr: 0x500, symBinAddr: 0x10000209C, symSize: 0x14 }
  - { offsetInCU: 0xA648, offset: 0xA648, size: 0x8, addend: 0x0, symName: __ZNSt3__120__throw_length_errorB7v160006EPKc, symObjAddr: 0x514, symBinAddr: 0x1000020B0, symSize: 0x50 }
  - { offsetInCU: 0xA653, offset: 0xA653, size: 0x8, addend: 0x0, symName: __ZNSt12length_errorC1B7v160006EPKc, symObjAddr: 0x564, symBinAddr: 0x100002100, symSize: 0x24 }
  - { offsetInCU: 0x686F, offset: 0x11AEB, size: 0x8, addend: 0x0, symName: __ZN4mcpplsERNSt3__113basic_ostreamIcNS0_11char_traitsIcEEEERKNS_9BlockTypeE, symObjAddr: 0x64, symBinAddr: 0x100002188, symSize: 0x150 }
  - { offsetInCU: 0x6F45, offset: 0x121C1, size: 0x8, addend: 0x0, symName: __ZNK4mcpp9BlockTypeeqERKS0_, symObjAddr: 0x0, symBinAddr: 0x100002124, symSize: 0x2C }
  - { offsetInCU: 0x6F96, offset: 0x12212, size: 0x8, addend: 0x0, symName: __ZNK4mcpp9BlockTypeneERKS0_, symObjAddr: 0x2C, symBinAddr: 0x100002150, symSize: 0x2C }
  - { offsetInCU: 0x6FCF, offset: 0x1224B, size: 0x8, addend: 0x0, symName: __ZNK4mcpp9BlockTypeneERKS0_, symObjAddr: 0x2C, symBinAddr: 0x100002150, symSize: 0x2C }
  - { offsetInCU: 0x6FF0, offset: 0x1226C, size: 0x8, addend: 0x0, symName: __ZNK4mcpp9BlockType8with_modEh, symObjAddr: 0x58, symBinAddr: 0x10000217C, symSize: 0xC }
  - { offsetInCU: 0x26, offset: 0x12837, size: 0x8, addend: 0x0, symName: __ZN4mcpp5ChunkC2ERKNS_10CoordinateES3_RKNSt3__16vectorINS_9BlockTypeENS4_9allocatorIS6_EEEE, symObjAddr: 0x0, symBinAddr: 0x1000022D8, symSize: 0x11C }
  - { offsetInCU: 0x470E, offset: 0x16F1F, size: 0x8, addend: 0x0, symName: __ZNSt3__1plB7v160006IcNS_11char_traitsIcEENS_9allocatorIcEEEENS_12basic_stringIT_T0_T1_EEOS9_SA_, symObjAddr: 0x5D4, symBinAddr: 0x1000028AC, symSize: 0x54 }
  - { offsetInCU: 0x6D60, offset: 0x19571, size: 0x8, addend: 0x0, symName: __ZN4mcpp5ChunkC2ERKNS_10CoordinateES3_RKNSt3__16vectorINS_9BlockTypeENS4_9allocatorIS6_EEEE, symObjAddr: 0x0, symBinAddr: 0x1000022D8, symSize: 0x11C }
  - { offsetInCU: 0x7211, offset: 0x19A22, size: 0x8, addend: 0x0, symName: __ZN4mcpp5ChunkC1ERKNS_10CoordinateES3_RKNSt3__16vectorINS_9BlockTypeENS4_9allocatorIS6_EEEE, symObjAddr: 0x11C, symBinAddr: 0x1000023F4, symSize: 0x4 }
  - { offsetInCU: 0x726A, offset: 0x19A7B, size: 0x8, addend: 0x0, symName: __ZN4mcpp5ChunkC1ERKNS_10CoordinateES3_RKNSt3__16vectorINS_9BlockTypeENS4_9allocatorIS6_EEEE, symObjAddr: 0x11C, symBinAddr: 0x1000023F4, symSize: 0x4 }
  - { offsetInCU: 0x72FB, offset: 0x19B0C, size: 0x8, addend: 0x0, symName: __ZN4mcpp5ChunkaSERKS0_, symObjAddr: 0x120, symBinAddr: 0x1000023F8, symSize: 0xAC }
  - { offsetInCU: 0x775F, offset: 0x19F70, size: 0x8, addend: 0x0, symName: __ZNK4mcpp5Chunk3getEiii, symObjAddr: 0x1CC, symBinAddr: 0x1000024A4, symSize: 0x170 }
  - { offsetInCU: 0x7B4D, offset: 0x1A35E, size: 0x8, addend: 0x0, symName: __ZNK4mcpp5Chunk14get_worldspaceERKNS_10CoordinateE, symObjAddr: 0x33C, symBinAddr: 0x100002614, symSize: 0x298 }
  - { offsetInCU: 0x84C1, offset: 0x1ACD2, size: 0x8, addend: 0x0, symName: __ZNK4mcpp5Chunk5x_lenEv, symObjAddr: 0x628, symBinAddr: 0x100002900, symSize: 0x8 }
  - { offsetInCU: 0x84EA, offset: 0x1ACFB, size: 0x8, addend: 0x0, symName: __ZNK4mcpp5Chunk5y_lenEv, symObjAddr: 0x630, symBinAddr: 0x100002908, symSize: 0x8 }
  - { offsetInCU: 0x8513, offset: 0x1AD24, size: 0x8, addend: 0x0, symName: __ZNK4mcpp5Chunk5z_lenEv, symObjAddr: 0x638, symBinAddr: 0x100002910, symSize: 0x8 }
  - { offsetInCU: 0x853C, offset: 0x1AD4D, size: 0x8, addend: 0x0, symName: __ZNK4mcpp5Chunk7base_ptEv, symObjAddr: 0x640, symBinAddr: 0x100002918, symSize: 0x10 }
  - { offsetInCU: 0x26, offset: 0x1ADA5, size: 0x8, addend: 0x0, symName: __ZN4mcpp16SocketConnectionC2ERKNSt3__112basic_stringIcNS1_11char_traitsIcEENS1_9allocatorIcEEEEt, symObjAddr: 0x0, symBinAddr: 0x100002928, symSize: 0x1E4 }
  - { offsetInCU: 0x6E0B, offset: 0x21B8A, size: 0x8, addend: 0x0, symName: __ZN4mcpp16SocketConnectionC2ERKNSt3__112basic_stringIcNS1_11char_traitsIcEENS1_9allocatorIcEEEEt, symObjAddr: 0x0, symBinAddr: 0x100002928, symSize: 0x1E4 }
  - { offsetInCU: 0x72D2, offset: 0x22051, size: 0x8, addend: 0x0, symName: __ZN4mcpp16SocketConnection16resolve_hostnameERKNSt3__112basic_stringIcNS1_11char_traitsIcEENS1_9allocatorIcEEEE, symObjAddr: 0x1E4, symBinAddr: 0x100002B0C, symSize: 0x17C }
  - { offsetInCU: 0x7C0A, offset: 0x22989, size: 0x8, addend: 0x0, symName: __ZN4mcpp16SocketConnectionC1ERKNSt3__112basic_stringIcNS1_11char_traitsIcEENS1_9allocatorIcEEEEt, symObjAddr: 0x360, symBinAddr: 0x100002C88, symSize: 0x4 }
  - { offsetInCU: 0x7C54, offset: 0x229D3, size: 0x8, addend: 0x0, symName: __ZN4mcpp16SocketConnectionC1ERKNSt3__112basic_stringIcNS1_11char_traitsIcEENS1_9allocatorIcEEEEt, symObjAddr: 0x360, symBinAddr: 0x100002C88, symSize: 0x4 }
  - { offsetInCU: 0x7C75, offset: 0x229F4, size: 0x8, addend: 0x0, symName: __ZNSt3__112basic_stringIcNS_11char_traitsIcEENS_9allocatorIcEEEC1B7v160006IDnEEPKc, symObjAddr: 0x364, symBinAddr: 0x100002C8C, symSize: 0x9C }
  - { offsetInCU: 0x7FE4, offset: 0x22D63, size: 0x8, addend: 0x0, symName: __ZN4mcpp16SocketConnection4sendERKNSt3__112basic_stringIcNS1_11char_traitsIcEENS1_9allocatorIcEEEE, symObjAddr: 0x400, symBinAddr: 0x100002D28, symSize: 0x94 }
  - { offsetInCU: 0x8022, offset: 0x22DA1, size: 0x8, addend: 0x0, symName: __ZN4mcpp16SocketConnection4sendERKNSt3__112basic_stringIcNS1_11char_traitsIcEENS1_9allocatorIcEEEE, symObjAddr: 0x400, symBinAddr: 0x100002D28, symSize: 0x94 }
  - { offsetInCU: 0x8539, offset: 0x232B8, size: 0x8, addend: 0x0, symName: __ZNK4mcpp16SocketConnection4recvEv, symObjAddr: 0x494, symBinAddr: 0x100002DBC, symSize: 0x2AC }
  - { offsetInCU: 0x8D7C, offset: 0x23AFB, size: 0x8, addend: 0x0, symName: __ZNSt3__118basic_stringstreamIcNS_11char_traitsIcEENS_9allocatorIcEEEC1B7v160006Ev, symObjAddr: 0x740, symBinAddr: 0x100003068, symSize: 0x12C }
  - { offsetInCU: 0x8EA6, offset: 0x23C25, size: 0x8, addend: 0x0, symName: __ZNSt3__118basic_stringstreamIcNS_11char_traitsIcEENS_9allocatorIcEEED1Ev, symObjAddr: 0x86C, symBinAddr: 0x100003194, symSize: 0x88 }
  - { offsetInCU: 0x6906, offset: 0x2A851, size: 0x8, addend: 0x0, symName: __ZN4mcpp9to_stringERKNS_10CoordinateE, symObjAddr: 0x110, symBinAddr: 0x10000332C, symSize: 0x374 }
  - { offsetInCU: 0x7F0E, offset: 0x2BE59, size: 0x8, addend: 0x0, symName: __ZN4mcpplsERNSt3__113basic_ostreamIcNS0_11char_traitsIcEEEERKNS_10CoordinateE, symObjAddr: 0x484, symBinAddr: 0x1000036A0, symSize: 0x88 }
  - { offsetInCU: 0x8266, offset: 0x2C1B1, size: 0x8, addend: 0x0, symName: __ZNK4mcpp10CoordinateplERKS0_, symObjAddr: 0x0, symBinAddr: 0x10000321C, symSize: 0x28 }
  - { offsetInCU: 0x82AE, offset: 0x2C1F9, size: 0x8, addend: 0x0, symName: __ZNK4mcpp10CoordinateeqERKS0_, symObjAddr: 0x28, symBinAddr: 0x100003244, symSize: 0x3C }
  - { offsetInCU: 0x82FF, offset: 0x2C24A, size: 0x8, addend: 0x0, symName: __ZNK4mcpp10CoordinateneERKS0_, symObjAddr: 0x64, symBinAddr: 0x100003280, symSize: 0x3C }
  - { offsetInCU: 0x8338, offset: 0x2C283, size: 0x8, addend: 0x0, symName: __ZNK4mcpp10CoordinateneERKS0_, symObjAddr: 0x64, symBinAddr: 0x100003280, symSize: 0x3C }
  - { offsetInCU: 0x8359, offset: 0x2C2A4, size: 0x8, addend: 0x0, symName: __ZNK4mcpp10CoordinatemiERKS0_, symObjAddr: 0xA0, symBinAddr: 0x1000032BC, symSize: 0x28 }
  - { offsetInCU: 0x83A1, offset: 0x2C2EC, size: 0x8, addend: 0x0, symName: __ZNK4mcpp10CoordinateclERKS0_, symObjAddr: 0xC8, symBinAddr: 0x1000032E4, symSize: 0x48 }
  - { offsetInCU: 0x26, offset: 0x2C992, size: 0x8, addend: 0x0, symName: __ZN4mcpp9HeightMapC2ERKNS_10CoordinateES3_RKNSt3__16vectorIsNS4_9allocatorIsEEEE, symObjAddr: 0x0, symBinAddr: 0x100003728, symSize: 0xD0 }
  - { offsetInCU: 0x64ED, offset: 0x32E59, size: 0x8, addend: 0x0, symName: __ZN4mcpp9HeightMapC2ERKNS_10CoordinateES3_RKNSt3__16vectorIsNS4_9allocatorIsEEEE, symObjAddr: 0x0, symBinAddr: 0x100003728, symSize: 0xD0 }
  - { offsetInCU: 0x6905, offset: 0x33271, size: 0x8, addend: 0x0, symName: __ZN4mcpp9HeightMapC1ERKNS_10CoordinateES3_RKNSt3__16vectorIsNS4_9allocatorIsEEEE, symObjAddr: 0xD0, symBinAddr: 0x1000037F8, symSize: 0xD0 }
  - { offsetInCU: 0x6D2A, offset: 0x33696, size: 0x8, addend: 0x0, symName: __ZN4mcpp9HeightMapaSERKS0_, symObjAddr: 0x1A0, symBinAddr: 0x1000038C8, symSize: 0x24 }
  - { offsetInCU: 0x6F0E, offset: 0x3387A, size: 0x8, addend: 0x0, symName: __ZNK4mcpp9HeightMap3getEii, symObjAddr: 0x1C4, symBinAddr: 0x1000038EC, symSize: 0x3C0 }
  - { offsetInCU: 0x7ED1, offset: 0x3483D, size: 0x8, addend: 0x0, symName: __ZNK4mcpp9HeightMap14get_worldspaceERKNS_10CoordinateE, symObjAddr: 0x5D8, symBinAddr: 0x100003CAC, symSize: 0x20 }
  - { offsetInCU: 0x7F38, offset: 0x348A4, size: 0x8, addend: 0x0, symName: __ZNK4mcpp9HeightMap10fill_coordERNS_10CoordinateE, symObjAddr: 0x5F8, symBinAddr: 0x100003CCC, symSize: 0x3C }
  - { offsetInCU: 0x7FA7, offset: 0x34913, size: 0x8, addend: 0x0, symName: __ZNK4mcpp9HeightMap5x_lenEv, symObjAddr: 0x634, symBinAddr: 0x100003D08, symSize: 0x8 }
  - { offsetInCU: 0x7FD0, offset: 0x3493C, size: 0x8, addend: 0x0, symName: __ZNK4mcpp9HeightMap5z_lenEv, symObjAddr: 0x63C, symBinAddr: 0x100003D10, symSize: 0x8 }
  - { offsetInCU: 0x7FF9, offset: 0x34965, size: 0x8, addend: 0x0, symName: __ZNK4mcpp9HeightMap7base_ptEv, symObjAddr: 0x644, symBinAddr: 0x100003D18, symSize: 0x10 }
  - { offsetInCU: 0xB049, offset: 0x3F9D7, size: 0x8, addend: 0x0, symName: __ZNSt3__17getlineB7v160006IcNS_11char_traitsIcEENS_9allocatorIcEEEERNS_13basic_istreamIT_T0_EES9_RNS_12basic_stringIS6_S7_T1_EES6_, symObjAddr: 0x2CFC, symBinAddr: 0x1000064DC, symSize: 0x1A8 }
  - { offsetInCU: 0xB9C6, offset: 0x40354, size: 0x8, addend: 0x0, symName: __ZNSt3__1rsB7v160006IcNS_11char_traitsIcEEEERNS_13basic_istreamIT_T0_EES7_RS4_, symObjAddr: 0x1E50, symBinAddr: 0x100005B78, symSize: 0x100 }
  - { offsetInCU: 0xC3D3, offset: 0x40D61, size: 0x8, addend: 0x0, symName: __ZSt28__throw_bad_array_new_lengthB7v160006v, symObjAddr: 0x2A9C, symBinAddr: 0x10000627C, symSize: 0x28 }
  - { offsetInCU: 0xF203, offset: 0x43B91, size: 0x8, addend: 0x0, symName: __ZN4mcpp19MinecraftConnectionC2ERKNSt3__112basic_stringIcNS1_11char_traitsIcEENS1_9allocatorIcEEEEt, symObjAddr: 0x0, symBinAddr: 0x100003D28, symSize: 0x94 }
  - { offsetInCU: 0xF4C2, offset: 0x43E50, size: 0x8, addend: 0x0, symName: __ZNSt3__110unique_ptrIN4mcpp16SocketConnectionENS_14default_deleteIS2_EEED1B7v160006Ev, symObjAddr: 0x94, symBinAddr: 0x100003DBC, symSize: 0x44 }
  - { offsetInCU: 0xF6C6, offset: 0x44054, size: 0x8, addend: 0x0, symName: __ZN4mcpp19MinecraftConnectionC1ERKNSt3__112basic_stringIcNS1_11char_traitsIcEENS1_9allocatorIcEEEEt, symObjAddr: 0xD8, symBinAddr: 0x100003E00, symSize: 0x4 }
  - { offsetInCU: 0xF710, offset: 0x4409E, size: 0x8, addend: 0x0, symName: __ZN4mcpp19MinecraftConnectionC1ERKNSt3__112basic_stringIcNS1_11char_traitsIcEENS1_9allocatorIcEEEEt, symObjAddr: 0xD8, symBinAddr: 0x100003E00, symSize: 0x4 }
  - { offsetInCU: 0xF74B, offset: 0x440D9, size: 0x8, addend: 0x0, symName: __ZN4mcpp19MinecraftConnectionD2Ev, symObjAddr: 0xDC, symBinAddr: 0x100003E04, symSize: 0x44 }
  - { offsetInCU: 0xF972, offset: 0x44300, size: 0x8, addend: 0x0, symName: __ZN4mcpp19MinecraftConnectionD1Ev, symObjAddr: 0x120, symBinAddr: 0x100003E48, symSize: 0x44 }
  - { offsetInCU: 0xFD08, offset: 0x44696, size: 0x8, addend: 0x0, symName: __ZN4mcpp19MinecraftConnection10postToChatERKNSt3__112basic_stringIcNS1_11char_traitsIcEENS1_9allocatorIcEEEE, symObjAddr: 0x164, symBinAddr: 0x100003E8C, symSize: 0xDC }
  - { offsetInCU: 0x1040F, offset: 0x44D9D, size: 0x8, addend: 0x0, symName: __ZN4mcpp16SocketConnection12send_commandIJNSt3__112basic_stringIcNS2_11char_traitsIcEENS2_9allocatorIcEEEEEEEvRKS8_DpRKT_, symObjAddr: 0x240, symBinAddr: 0x100003F68, symSize: 0x244 }
  - { offsetInCU: 0x11081, offset: 0x45A0F, size: 0x8, addend: 0x0, symName: __ZN4mcpp19MinecraftConnection9doCommandERKNSt3__112basic_stringIcNS1_11char_traitsIcEENS1_9allocatorIcEEEE, symObjAddr: 0x484, symBinAddr: 0x1000041AC, symSize: 0x78 }
  - { offsetInCU: 0x11551, offset: 0x45EDF, size: 0x8, addend: 0x0, symName: __ZN4mcpp19MinecraftConnection17setPlayerPositionERKNS_10CoordinateE, symObjAddr: 0x4FC, symBinAddr: 0x100004224, symSize: 0x88 }
  - { offsetInCU: 0x11A44, offset: 0x463D2, size: 0x8, addend: 0x0, symName: __ZN4mcpp16SocketConnection12send_commandIJiiiEEEvRKNSt3__112basic_stringIcNS2_11char_traitsIcEENS2_9allocatorIcEEEEDpRKT_, symObjAddr: 0x584, symBinAddr: 0x1000042AC, symSize: 0x27C }
  - { offsetInCU: 0x12362, offset: 0x46CF0, size: 0x8, addend: 0x0, symName: __ZNK4mcpp19MinecraftConnection17getPlayerPositionEv, symObjAddr: 0x800, symBinAddr: 0x100004528, symSize: 0xC4 }
  - { offsetInCU: 0x12942, offset: 0x472D0, size: 0x8, addend: 0x0, symName: __ZN4mcpp16SocketConnection20send_receive_commandIA14_cJA1_cEEENSt3__112basic_stringIcNS4_11char_traitsIcEENS4_9allocatorIcEEEERKT_DpRKT0_, symObjAddr: 0x8C4, symBinAddr: 0x1000045EC, symSize: 0xF8 }
  - { offsetInCU: 0x12F93, offset: 0x47921, size: 0x8, addend: 0x0, symName: __Z14split_responseIiEvRKNSt3__112basic_stringIcNS0_11char_traitsIcEENS0_9allocatorIcEEEERNS0_6vectorIT_NS4_ISA_EEEE, symObjAddr: 0x9BC, symBinAddr: 0x1000046E4, symSize: 0x290 }
  - { offsetInCU: 0x13A9D, offset: 0x4842B, size: 0x8, addend: 0x0, symName: __ZN4mcpp16SocketConnection12send_commandIJA1_cEEEvRKNSt3__112basic_stringIcNS3_11char_traitsIcEENS3_9allocatorIcEEEEDpRKT_, symObjAddr: 0x2AC4, symBinAddr: 0x1000062A4, symSize: 0x238 }
  - { offsetInCU: 0x1461E, offset: 0x48FAC, size: 0x8, addend: 0x0, symName: __ZNSt3__118basic_stringstreamIcNS_11char_traitsIcEENS_9allocatorIcEEEC1B7v160006ERKNS_12basic_stringIcS2_S4_EEj, symObjAddr: 0x1CE8, symBinAddr: 0x100005A10, symSize: 0x168 }
  - { offsetInCU: 0x14863, offset: 0x491F1, size: 0x8, addend: 0x0, symName: __ZNKSt3__16vectorIiNS_9allocatorIiEEE20__throw_length_errorB7v160006Ev, symObjAddr: 0x2EA4, symBinAddr: 0x100006684, symSize: 0x14 }
  - { offsetInCU: 0x1488D, offset: 0x4921B, size: 0x8, addend: 0x0, symName: __ZNKSt3__16vectorIhNS_9allocatorIhEEE20__throw_length_errorB7v160006Ev, symObjAddr: 0x2EB8, symBinAddr: 0x100006698, symSize: 0x14 }
  - { offsetInCU: 0x148BB, offset: 0x49249, size: 0x8, addend: 0x0, symName: __ZN4mcpp19MinecraftConnection21setPlayerTilePositionERKNS_10CoordinateE, symObjAddr: 0xC4C, symBinAddr: 0x100004974, symSize: 0xA4 }
  - { offsetInCU: 0x14DC2, offset: 0x49750, size: 0x8, addend: 0x0, symName: __ZNK4mcpp19MinecraftConnection21getPlayerTilePositionEv, symObjAddr: 0xCF0, symBinAddr: 0x100004A18, symSize: 0x20 }
  - { offsetInCU: 0x14E10, offset: 0x4979E, size: 0x8, addend: 0x0, symName: __ZN4mcpp19MinecraftConnection8setBlockERKNS_10CoordinateERKNS_9BlockTypeE, symObjAddr: 0xD10, symBinAddr: 0x100004A38, symSize: 0xA0 }
  - { offsetInCU: 0x152FC, offset: 0x49C8A, size: 0x8, addend: 0x0, symName: __ZN4mcpp16SocketConnection12send_commandIJiiiiiEEEvRKNSt3__112basic_stringIcNS2_11char_traitsIcEENS2_9allocatorIcEEEEDpRKT_, symObjAddr: 0xDB0, symBinAddr: 0x100004AD8, symSize: 0x2CC }
  - { offsetInCU: 0x15B73, offset: 0x4A501, size: 0x8, addend: 0x0, symName: __ZN4mcpp19MinecraftConnection9setBlocksERKNS_10CoordinateES3_RKNS_9BlockTypeE, symObjAddr: 0x107C, symBinAddr: 0x100004DA4, symSize: 0xD8 }
  - { offsetInCU: 0x160EF, offset: 0x4AA7D, size: 0x8, addend: 0x0, symName: __ZN4mcpp16SocketConnection12send_commandIJiiiiiiiiEEEvRKNSt3__112basic_stringIcNS2_11char_traitsIcEENS2_9allocatorIcEEEEDpRKT_, symObjAddr: 0x1154, symBinAddr: 0x100004E7C, symSize: 0x338 }
  - { offsetInCU: 0x16BB1, offset: 0x4B53F, size: 0x8, addend: 0x0, symName: __ZNK4mcpp19MinecraftConnection8getBlockERKNS_10CoordinateE, symObjAddr: 0x148C, symBinAddr: 0x1000051B4, symSize: 0xBC }
  - { offsetInCU: 0x17190, offset: 0x4BB1E, size: 0x8, addend: 0x0, symName: __ZN4mcpp16SocketConnection20send_receive_commandIA23_cJiiiEEENSt3__112basic_stringIcNS3_11char_traitsIcEENS3_9allocatorIcEEEERKT_DpRKT0_, symObjAddr: 0x1548, symBinAddr: 0x100005270, symSize: 0x110 }
  - { offsetInCU: 0x17815, offset: 0x4C1A3, size: 0x8, addend: 0x0, symName: __Z14split_responseIhEvRKNSt3__112basic_stringIcNS0_11char_traitsIcEENS0_9allocatorIcEEEERNS0_6vectorIT_NS4_ISA_EEEE, symObjAddr: 0x1658, symBinAddr: 0x100005380, symSize: 0x288 }
  - { offsetInCU: 0x1862D, offset: 0x4CFBB, size: 0x8, addend: 0x0, symName: __ZNKSt3__16vectorIhNS_9allocatorIhEEE20__throw_length_errorB7v160006Ev, symObjAddr: 0x2EB8, symBinAddr: 0x100006698, symSize: 0x14 }
  - { offsetInCU: 0x18657, offset: 0x4CFE5, size: 0x8, addend: 0x0, symName: __ZN4mcpp16SocketConnection12send_commandIJiiiiiiEEEvRKNSt3__112basic_stringIcNS2_11char_traitsIcEENS2_9allocatorIcEEEEDpRKT_, symObjAddr: 0x2ECC, symBinAddr: 0x1000066AC, symSize: 0x2F0 }
  - { offsetInCU: 0x18BAA, offset: 0x4D538, size: 0x8, addend: 0x0, symName: __ZNK4mcpp19MinecraftConnection9getBlocksERKNS_10CoordinateES3_, symObjAddr: 0x18E0, symBinAddr: 0x100005608, symSize: 0x2A8 }
  - { offsetInCU: 0x19927, offset: 0x4E2B5, size: 0x8, addend: 0x0, symName: __ZN4mcpp16SocketConnection20send_receive_commandIA24_cJiiiiiiEEENSt3__112basic_stringIcNS3_11char_traitsIcEENS3_9allocatorIcEEEERKT_DpRKT0_, symObjAddr: 0x1B88, symBinAddr: 0x1000058B0, symSize: 0x160 }
  - { offsetInCU: 0x19FFA, offset: 0x4E988, size: 0x8, addend: 0x0, symName: __ZNKSt3__16vectorIN4mcpp9BlockTypeENS_9allocatorIS2_EEE20__throw_length_errorB7v160006Ev, symObjAddr: 0x31BC, symBinAddr: 0x10000699C, symSize: 0x14 }
  - { offsetInCU: 0x1A024, offset: 0x4E9B2, size: 0x8, addend: 0x0, symName: __ZN4mcpp16SocketConnection12send_commandIJiiEEEvRKNSt3__112basic_stringIcNS2_11char_traitsIcEENS2_9allocatorIcEEEEDpRKT_, symObjAddr: 0x31D0, symBinAddr: 0x1000069B0, symSize: 0x250 }
  - { offsetInCU: 0x1A02F, offset: 0x4E9BD, size: 0x8, addend: 0x0, symName: __ZN4mcpp16SocketConnection12send_commandIJiiiiiiEEEvRKNSt3__112basic_stringIcNS2_11char_traitsIcEENS2_9allocatorIcEEEEDpRKT_, symObjAddr: 0x2ECC, symBinAddr: 0x1000066AC, symSize: 0x2F0 }
  - { offsetInCU: 0x1AA7B, offset: 0x4F409, size: 0x8, addend: 0x0, symName: __ZNK4mcpp19MinecraftConnection9getHeightEii, symObjAddr: 0x1FD8, symBinAddr: 0x100005C78, symSize: 0x88 }
  - { offsetInCU: 0x1AD74, offset: 0x4F702, size: 0x8, addend: 0x0, symName: __ZN4mcpp16SocketConnection20send_receive_commandIA16_cJiiEEENSt3__112basic_stringIcNS3_11char_traitsIcEENS3_9allocatorIcEEEERKT_DpRKT0_, symObjAddr: 0x2060, symBinAddr: 0x100005D00, symSize: 0x100 }
  - { offsetInCU: 0x1B3DF, offset: 0x4FD6D, size: 0x8, addend: 0x0, symName: __ZN4mcpp16SocketConnection12send_commandIJiiEEEvRKNSt3__112basic_stringIcNS2_11char_traitsIcEENS2_9allocatorIcEEEEDpRKT_, symObjAddr: 0x31D0, symBinAddr: 0x1000069B0, symSize: 0x250 }
  - { offsetInCU: 0x1BC86, offset: 0x50614, size: 0x8, addend: 0x0, symName: __ZNK4mcpp19MinecraftConnection10getHeightsERKNS_10CoordinateES3_, symObjAddr: 0x2160, symBinAddr: 0x100005E00, symSize: 0xDC }
  - { offsetInCU: 0x1C257, offset: 0x50BE5, size: 0x8, addend: 0x0, symName: __ZN4mcpp16SocketConnection20send_receive_commandIA17_cJiiiiEEENSt3__112basic_stringIcNS3_11char_traitsIcEENS3_9allocatorIcEEEERKT_DpRKT0_, symObjAddr: 0x223C, symBinAddr: 0x100005EDC, symSize: 0x118 }
  - { offsetInCU: 0x1C8F6, offset: 0x51284, size: 0x8, addend: 0x0, symName: __Z14split_responseIsEvRKNSt3__112basic_stringIcNS0_11char_traitsIcEENS0_9allocatorIcEEEERNS0_6vectorIT_NS4_ISA_EEEE, symObjAddr: 0x2354, symBinAddr: 0x100005FF4, symSize: 0x288 }
  - { offsetInCU: 0x1D368, offset: 0x51CF6, size: 0x8, addend: 0x0, symName: __ZN4mcpp16SocketConnection12send_commandIJiiiiEEEvRKNSt3__112basic_stringIcNS2_11char_traitsIcEENS2_9allocatorIcEEEEDpRKT_, symObjAddr: 0x3420, symBinAddr: 0x100006C00, symSize: 0x2A0 }
  - { offsetInCU: 0x1DEF0, offset: 0x5287E, size: 0x8, addend: 0x0, symName: __ZNKSt3__16vectorIsNS_9allocatorIsEEE20__throw_length_errorB7v160006Ev, symObjAddr: 0x36C0, symBinAddr: 0x100006EA0, symSize: 0x14 }
...
